; Function Attrs: nounwind memory(readwrite, argmem: none) uwtable
define noalias noundef ptr @SUNDlsMat_newDenseMat(i64 noundef %0, i64 noundef %1) local_unnamed_addr #0 {
  %3 = icmp slt i64 %1, 1
  %4 = icmp slt i64 %0, 1
  %or.cond = or i1 %4, %3
  br i1 %or.cond, label %.loopexit, label %5

5:                                                ; preds = %2
  %6 = shl i64 %1, 3
  %7 = tail call noalias ptr @malloc(i64 noundef %6) #12
  %8 = icmp eq ptr %7, null
  br i1 %8, label %.loopexit, label %9

9:                                                ; preds = %5
  %10 = shl i64 %0, 3
  %11 = mul i64 %10, %1
  %12 = tail call noalias ptr @malloc(i64 noundef %11) #12
  store ptr %12, ptr %7, align 8, !tbaa !13
  %13 = icmp eq ptr %12, null
  br i1 %13, label %15, label %.preheader

.preheader:                                       ; preds = %9
  %14 = icmp samesign ugt i64 %1, 1
  br i1 %14, label %.lr.ph, label %.loopexit

15:                                               ; preds = %9
  tail call void @free(ptr noundef nonnull %7) #13
  br label %.loopexit

.lr.ph:                                           ; preds = %.preheader, %.lr.ph
  %.024 = phi i64 [ %19, %.lr.ph ], [ 1, %.preheader ]
  %16 = mul nuw nsw i64 %.024, %0
  %17 = getelementptr inbounds nuw double, ptr %12, i64 %16
  %18 = getelementptr inbounds nuw ptr, ptr %7, i64 %.024
  store ptr %17, ptr %18, align 8, !tbaa !13
  %19 = add nuw nsw i64 %.024, 1
  %exitcond.not = icmp eq i64 %19, %1
  br i1 %exitcond.not, label %.loopexit, label %.lr.ph

.loopexit:                                        ; preds = %.lr.ph, %.preheader, %5, %2, %15
  %.020 = phi ptr [ null, %15 ], [ null, %2 ], [ null, %5 ], [ %7, %.preheader ], [ %7, %.lr.ph ]
  ret ptr %.020
}